cnumpy.core.multiarray
_reconstruct
p0
(cnumpy
ndarray
p1
(I0
tp2
S'b'
p3
tp4
Rp5
(I1
(I4
I4
I4
I4
tp6
cnumpy
dtype
p7
(S'O8'
p8
I0
I1
tp9
Rp10
(I3
S'|'
p11
NNNI-1
I-1
I63
tp12
bI00
(lp13
csympy.core.mul
Mul
p14
(csympy.core.numbers
Rational
p15
(I5
I8
tp16
Rp17
(dp18
bcsympy.core.symbol
Symbol
p19
(S'Z'
p20
tp21
Rp22
(dp23
S'_assumptions'
p24
ccopy_reg
_reconstructor
p25
(csympy.core.assumptions
StdFactKB
p26
c__builtin__
dict
p27
(dp28
S'commutative'
p29
I01
stp30
Rp31
sbtp32
Rp33
(dp34
bag14
(csympy.core.numbers
Float
p35
((I0
S'16dff8b244f4c7L'
p36
I-56
I53
tp37
tp38
Rp39
(dp40
S'_prec'
p41
I53
sbg22
tp42
Rp43
(dp44
bag14
(g35
((I0
S'1681da5bdf2ef3L'
p45
I-57
I53
tp46
tp47
Rp48
(dp49
g41
I53
sbg22
tp50
Rp51
(dp52
bag14
(g15
(I416415744
I15083778125
tp53
Rp54
(dp55
bg22
tp56
Rp57
(dp58
bag43
ag14
(g15
(I16
I729
tp59
Rp60
(dp61
bg22
tp62
Rp63
(dp64
bag14
(g35
((I0
S'b7e054fa9d049L'
p65
I-58
I52
tp66
tp67
Rp68
(dp69
g41
I53
sbg22
tp70
Rp71
(dp72
bag14
(g35
((I0
S'3a713ae35b327L'
p73
I-57
I50
tp74
tp75
Rp76
(dp77
g41
I53
sbg22
tp78
Rp79
(dp80
bag51
ag71
ag14
(g15
(I189
I32768
tp81
Rp82
(dp83
bg22
tp84
Rp85
(dp86
bag14
(g35
((I0
S'f0ae4e6966e2bL'
p87
I-60
I52
tp88
tp89
Rp90
(dp91
g41
I53
sbg22
tp92
Rp93
(dp94
bag57
ag79
ag93
ag14
(g15
(I22848
I9765625
tp95
Rp96
(dp97
bg22
tp98
Rp99
(dp100
bag43
ag14
(g15
(I17
I81
tp101
Rp102
(dp103
bg22
tp104
Rp105
(dp106
bag14
(g35
((I0
S'19de9b3bd85409L'
p107
I-57
I53
tp108
tp109
Rp110
(dp111
g41
I53
sbg22
tp112
Rp113
(dp114
bag14
(g35
((I0
S'eb3d2c982d1L'
p115
I-49
I44
tp116
tp117
Rp118
(dp119
g41
I53
sbg22
tp120
Rp121
(dp122
bag63
ag14
(g35
((I0
S'1193428f5b9091L'
p123
I-59
I53
tp124
tp125
Rp126
(dp127
g41
I53
sbg22
tp128
Rp129
(dp130
bag14
(g35
((I0
S'129b852c2c3625L'
p131
I-60
I53
tp132
tp133
Rp134
(dp135
g41
I53
sbg22
tp136
Rp137
(dp138
bag14
(g15
(I376832
I129140163
tp139
Rp140
(dp141
bg22
tp142
Rp143
(dp144
bag71
ag14
(g35
((I0
S'407c932049387L'
p145
I-58
I51
tp146
tp147
Rp148
(dp149
g41
I53
sbg22
tp150
Rp151
(dp152
bag14
(g35
((I0
S'451be6690da7bL'
p153
I-59
I51
tp154
tp155
Rp156
(dp157
g41
I53
sbg22
tp158
Rp159
(dp160
bag14
(g35
((I0
S'b2569ca7b50dfL'
p161
I-61
I52
tp162
tp163
Rp164
(dp165
g41
I53
sbg22
tp166
Rp167
(dp168
bag79
ag14
(g15
(I108838912
I44840334375
tp169
Rp170
(dp171
bg22
tp172
Rp173
(dp174
bag14
(g35
((I0
S'556a8ebc11a27L'
p175
I-60
I51
tp176
tp177
Rp178
(dp179
g41
I53
sbg22
tp180
Rp181
(dp182
bag14
(g35
((I0
S'dc9e086758871L'
p183
I-61
I52
tp184
tp185
Rp186
(dp187
g41
I53
sbg22
tp188
Rp189
(dp190
bag51
ag113
ag14
(g15
(I815
I8192
tp191
Rp192
(dp193
bg22
tp194
Rp195
(dp196
bag14
(g35
((I0
S'761f8e0d7d8d7L'
p197
I-56
I51
tp198
tp199
Rp200
(dp201
g41
I53
sbg22
tp202
Rp203
(dp204
bag71
ag137
ag14
(g35
((I0
S'9f2d64f7d75ddL'
p205
I-60
I52
tp206
tp207
Rp208
(dp209
g41
I53
sbg22
tp210
Rp211
(dp212
bag14
(g35
((I0
S'19a4a337ea0011L'
p213
I-62
I53
tp214
tp215
Rp216
(dp217
g41
I53
sbg22
tp218
Rp219
(dp220
bag85
ag159
ag14
(g35
((I0
S'de63bbecf8383L'
p221
I-60
I52
tp222
tp223
Rp224
(dp225
g41
I53
sbg22
tp226
Rp227
(dp228
bag14
(g15
(I30254432256
I41426511213649
tp229
Rp230
(dp231
bg22
tp232
Rp233
(dp234
bag93
ag181
ag14
(g15
(I90581886173184
I129457847542653125
tp235
Rp236
(dp237
bg22
tp238
Rp239
(dp240
bag14
(g35
((I0
S'1d9ed24173507bL'
p241
I-64
I53
tp242
tp243
Rp244
(dp245
g41
I53
sbg22
tp246
Rp247
(dp248
bag57
ag121
ag203
ag14
(g15
(I22513
I390625
tp249
Rp250
(dp251
bg22
tp252
Rp253
(dp254
bag79
ag143
ag219
ag14
(g35
((I0
S'84556efa67849L'
p255
I-60
I52
tp256
tp257
Rp258
(dp259
g41
I53
sbg22
tp260
Rp261
(dp262
bag93
ag167
ag233
ag14
(g35
((I0
S'1ee986bc3879f1L'
p263
I-64
I53
tp264
tp265
Rp266
(dp267
g41
I53
sbg22
tp268
Rp269
(dp270
bag99
ag189
ag247
ag14
(g15
(I1804351488
I6179146071875
tp271
Rp272
(dp273
bg22
tp274
Rp275
(dp276
bag43
ag63
ag71
ag79
ag105
ag129
ag151
ag173
ag113
ag137
ag159
ag181
ag121
ag143
ag167
ag189
ag63
ag129
ag137
ag143
ag129
ag14
(g15
(I77
I512
tp277
Rp278
(dp279
bg22
tp280
Rp281
(dp282
bag14
(g35
((I0
S'afdbae27450bbL'
p283
I-57
I52
tp284
tp285
Rp286
(dp287
g41
I53
sbg22
tp288
Rp289
(dp290
bag14
(g35
((I0
S'159d6515549731L'
p291
I-59
I53
tp292
tp293
Rp294
(dp295
g41
I53
sbg22
tp296
Rp297
(dp298
bag137
ag289
ag14
(g15
(I73008
I9765625
tp299
Rp300
(dp301
bg22
tp302
Rp303
(dp304
bag14
(g35
((I0
S'110e2a5dce6075L'
p305
I-60
I53
tp306
tp307
Rp308
(dp309
g41
I53
sbg22
tp310
Rp311
(dp312
bag143
ag297
ag311
ag14
(g15
(I424
I177147
tp313
Rp314
(dp315
bg22
tp316
Rp317
(dp318
bag71
ag137
ag211
ag219
ag151
ag289
ag14
(g15
(I32857
I390625
tp319
Rp320
(dp321
bg22
tp322
Rp323
(dp324
bag14
(g35
((I0
S'9bfcc01be2cebL'
p325
I-57
I52
tp326
tp327
Rp328
(dp329
g41
I53
sbg22
tp330
Rp331
(dp332
bag159
ag303
ag14
(g35
((I0
S'9848596142a47L'
p333
I-59
I52
tp334
tp335
Rp336
(dp337
g41
I53
sbg22
tp338
Rp339
(dp340
bag14
(g35
((I0
S'bb06fe621e7d9L'
p341
I-60
I52
tp342
tp343
Rp344
(dp345
g41
I53
sbg22
tp346
Rp347
(dp348
bag167
ag311
ag14
(g35
((I0
S'10fe17a4a2aab9L'
p349
I-61
I53
tp350
tp351
Rp352
(dp353
g41
I53
sbg22
tp354
Rp355
(dp356
bag14
(g35
((I0
S'15c0e06c96d881L'
p357
I-62
I53
tp358
tp359
Rp360
(dp361
g41
I53
sbg22
tp362
Rp363
(dp364
bag79
ag143
ag219
ag261
ag173
ag297
ag331
ag14
(g15
(I4043
I78732
tp365
Rp366
(dp367
bg22
tp368
Rp369
(dp370
bag181
ag311
ag347
ag14
(g35
((I0
S'1ddaed737cb3a7L'
p371
I-62
I53
tp372
tp373
Rp374
(dp375
g41
I53
sbg22
tp376
Rp377
(dp378
bag189
ag317
ag363
ag14
(g35
((I0
S'1bab09a7495617L'
p379
I-63
I53
tp380
tp381
Rp382
(dp383
g41
I53
sbg22
tp384
Rp385
(dp386
bag51
ag71
ag85
ag93
ag113
ag137
ag159
ag181
ag195
ag211
ag227
ag239
ag203
ag219
ag233
ag247
ag71
ag151
ag159
ag167
ag137
ag289
ag303
ag311
ag211
ag323
ag339
ag355
ag219
ag331
ag347
ag363
ag85
ag159
ag227
ag233
ag159
ag303
ag339
ag347
ag227
ag339
ag14
(g15
(I17
I256
tp387
Rp388
(dp389
bg22
tp390
Rp391
(dp392
bag14
(g35
((I0
S'6f72f080559dbL'
p393
I-56
I51
tp394
tp395
Rp396
(dp397
g41
I53
sbg22
tp398
Rp399
(dp400
bag233
ag347
ag399
ag14
(g15
(I2560158144
I678223072849
tp401
Rp402
(dp403
bg22
tp404
Rp405
(dp406
bag93
ag167
ag233
ag269
ag181
ag311
ag347
ag377
ag239
ag355
ag399
ag14
(g15
(I621550729
I13841287201
tp407
Rp408
(dp409
bg22
tp410
Rp411
(dp412
bag247
ag363
ag405
ag14
(g35
((I0
S'bc3c89b86683dL'
p413
I-60
I52
tp414
tp415
Rp416
(dp417
g41
I53
sbg22
tp418
Rp419
(dp420
bag57
ag79
ag93
ag99
ag121
ag143
ag167
ag189
ag203
ag219
ag233
ag247
ag253
ag261
ag269
ag275
ag79
ag173
ag181
ag189
ag143
ag297
ag311
ag317
ag219
ag331
ag347
ag363
ag261
ag369
ag377
ag385
ag93
ag181
ag239
ag247
ag167
ag311
ag355
ag363
ag233
ag347
ag399
ag405
ag269
ag377
ag411
ag419
ag99
ag189
ag247
ag275
ag189
ag317
ag363
ag385
ag247
ag363
ag405
ag419
ag275
ag385
ag419
ag14
(g15
(I19541
I524288
tp421
Rp422
(dp423
bg22
tp424
Rp425
(dp426
batp427
b.